target datalayout = "e-m:e-p270:32:32-p271:32:32-p272:64:64-i64:64-i128:128-f80:128-n8:16:32:64-S128"
target triple = "x86_64-pc-linux-gnu"

%struct.Super_ManStruct_t_ = type { ptr, i32, i32, i32, i32, float, float, i32, i32, i32, [10 x ptr], i32, ptr, ptr, ptr, ptr, i32, i32, i32, i32, i32, i32, i32, i64, i32, i32, i64, i64 }
%struct.timespec = type { i64, i64 }

@.str.53 = private unnamed_addr constant [10 x i8] c"Timeout!\0A\00", align 1

; Function Attrs: inlinehint nounwind uwtable
define internal void @Extra_ProgressBarUpdate(ptr noundef %0, i32 noundef %1, ptr noundef %2) #3 {
  %4 = alloca ptr, align 8
  %5 = alloca i32, align 4
  %6 = alloca ptr, align 8
  store ptr %0, ptr %4, align 8, !tbaa !63
  store i32 %1, ptr %5, align 4, !tbaa !8
  store ptr %2, ptr %6, align 8, !tbaa !12
  %7 = load ptr, ptr %4, align 8, !tbaa !63
  %8 = icmp ne ptr %7, null
  br i1 %8, label %9, label %15

9:                                                ; preds = %3
  %10 = load i32, ptr %5, align 4, !tbaa !8
  %11 = load ptr, ptr %4, align 8, !tbaa !63
  %12 = load i32, ptr %11, align 4, !tbaa !8
  %13 = icmp slt i32 %10, %12
  br i1 %13, label %14, label %15

14:                                               ; preds = %9
  br label %19

15:                                               ; preds = %9, %3
  %16 = load ptr, ptr %4, align 8, !tbaa !63
  %17 = load i32, ptr %5, align 4, !tbaa !8
  %18 = load ptr, ptr %6, align 8, !tbaa !12
  call void @Extra_ProgressBarUpdate_int(ptr noundef %16, i32 noundef %17, ptr noundef %18)
  br label %19

19:                                               ; preds = %15, %14
  ret void
}

; Function Attrs: inlinehint nounwind uwtable
define internal i64 @Abc_Clock() #3 {
  %1 = alloca i64, align 8
  %2 = alloca %struct.timespec, align 8
  %3 = alloca i32, align 4
  %4 = alloca i64, align 8
  call void @llvm.lifetime.start.p0(i64 16, ptr %2) #12
  %5 = call i32 @clock_gettime(i32 noundef 1, ptr noundef %2) #12
  %6 = icmp slt i32 %5, 0
  br i1 %6, label %7, label %8

7:                                                ; preds = %0
  store i64 -1, ptr %1, align 8
  store i32 1, ptr %3, align 4
  br label %19

8:                                                ; preds = %0
  call void @llvm.lifetime.start.p0(i64 8, ptr %4) #12
  %9 = getelementptr inbounds nuw %struct.timespec, ptr %2, i32 0, i32 0
  %10 = load i64, ptr %9, align 8, !tbaa !123
  %11 = mul nsw i64 %10, 1000000
  store i64 %11, ptr %4, align 8, !tbaa !36
  %12 = getelementptr inbounds nuw %struct.timespec, ptr %2, i32 0, i32 1
  %13 = load i64, ptr %12, align 8, !tbaa !125
  %14 = mul nsw i64 %13, 1000000
  %15 = sdiv i64 %14, 1000000000
  %16 = load i64, ptr %4, align 8, !tbaa !36
  %17 = add nsw i64 %16, %15
  store i64 %17, ptr %4, align 8, !tbaa !36
  %18 = load i64, ptr %4, align 8, !tbaa !36
  store i64 %18, ptr %1, align 8
  store i32 1, ptr %3, align 4
  call void @llvm.lifetime.end.p0(i64 8, ptr %4) #12
  br label %19

19:                                               ; preds = %8, %7
  call void @llvm.lifetime.end.p0(i64 16, ptr %2) #12
  %20 = load i64, ptr %1, align 8
  ret i64 %20
}

; Function Attrs: nounwind uwtable
define internal i32 @Super_CheckTimeout(ptr noundef %0, ptr noundef %1) #0 {
  %3 = alloca i32, align 4
  %4 = alloca ptr, align 8
  %5 = alloca ptr, align 8
  %6 = alloca i64, align 8
  %7 = alloca i32, align 4
  store ptr %0, ptr %4, align 8, !tbaa !63
  store ptr %1, ptr %5, align 8, !tbaa !20
  call void @llvm.lifetime.start.p0(i64 8, ptr %6) #12
  %8 = call i64 @Abc_Clock()
  store i64 %8, ptr %6, align 8, !tbaa !36
  %9 = load i64, ptr %6, align 8, !tbaa !36
  %10 = load ptr, ptr %5, align 8, !tbaa !20
  %11 = getelementptr inbounds nuw %struct.Super_ManStruct_t_, ptr %10, i32 0, i32 27
  %12 = load i64, ptr %11, align 8, !tbaa !65
  %13 = icmp sgt i64 %9, %12
  br i1 %13, label %14, label %24

14:                                               ; preds = %2
  %15 = load ptr, ptr %4, align 8, !tbaa !63
  %16 = load ptr, ptr %5, align 8, !tbaa !20
  %17 = getelementptr inbounds nuw %struct.Super_ManStruct_t_, ptr %16, i32 0, i32 25
  %18 = load i32, ptr %17, align 4, !tbaa !130
  %19 = add nsw i32 %18, 1
  store i32 %19, ptr %17, align 4, !tbaa !130
  call void @Extra_ProgressBarUpdate(ptr noundef %15, i32 noundef %19, ptr noundef null)
  %20 = call i64 @Abc_Clock()
  %21 = add nsw i64 %20, 1000000
  %22 = load ptr, ptr %5, align 8, !tbaa !20
  %23 = getelementptr inbounds nuw %struct.Super_ManStruct_t_, ptr %22, i32 0, i32 27
  store i64 %21, ptr %23, align 8, !tbaa !65
  br label %24

24:                                               ; preds = %14, %2
  %25 = load ptr, ptr %5, align 8, !tbaa !20
  %26 = getelementptr inbounds nuw %struct.Super_ManStruct_t_, ptr %25, i32 0, i32 26
  %27 = load i64, ptr %26, align 8, !tbaa !34
  %28 = icmp ne i64 %27, 0
  br i1 %28, label %29, label %37

29:                                               ; preds = %24
  %30 = load i64, ptr %6, align 8, !tbaa !36
  %31 = load ptr, ptr %5, align 8, !tbaa !20
  %32 = getelementptr inbounds nuw %struct.Super_ManStruct_t_, ptr %31, i32 0, i32 26
  %33 = load i64, ptr %32, align 8, !tbaa !34
  %34 = icmp sgt i64 %30, %33
  br i1 %34, label %35, label %37

35:                                               ; preds = %29
  %36 = call i32 (ptr, ...) @printf(ptr noundef @.str.53)
  store i32 1, ptr %3, align 4
  store i32 1, ptr %7, align 4
  br label %42

37:                                               ; preds = %29, %24
  %38 = load ptr, ptr %5, align 8, !tbaa !20
  %39 = getelementptr inbounds nuw %struct.Super_ManStruct_t_, ptr %38, i32 0, i32 16
  %40 = load i32, ptr %39, align 8, !tbaa !39
  %41 = add nsw i32 %40, 1
  store i32 %41, ptr %39, align 8, !tbaa !39
  store i32 0, ptr %3, align 4
  store i32 1, ptr %7, align 4
  br label %42

42:                                               ; preds = %37, %35
  call void @llvm.lifetime.end.p0(i64 8, ptr %6) #12
  %43 = load i32, ptr %3, align 4
  ret i32 %43
}