; Function Attrs: nounwind uwtable
define internal fastcc range(i32 0, 2) i32 @Super_CheckTimeout(ptr noundef %0, ptr noundef captures(none) %1) unnamed_addr #0 {
  %3 = alloca %struct.timespec, align 8
  %4 = alloca %struct.timespec, align 8
  call void @llvm.lifetime.start.p0(i64 16, ptr nonnull %4) #20
  %5 = call i32 @clock_gettime(i32 noundef 1, ptr noundef nonnull %4) #20
  %6 = icmp slt i32 %5, 0
  br i1 %6, label %Abc_Clock.exit, label %7

7:                                                ; preds = %2
  %8 = load i64, ptr %4, align 8, !tbaa !28
  %9 = mul nsw i64 %8, 1000000
  %10 = getelementptr inbounds nuw i8, ptr %4, i64 8
  %11 = load i64, ptr %10, align 8, !tbaa !30
  %12 = sdiv i64 %11, 1000
  %13 = add nsw i64 %12, %9
  br label %Abc_Clock.exit

Abc_Clock.exit:                                   ; preds = %2, %7
  %.0.i = phi i64 [ %13, %7 ], [ -1, %2 ]
  call void @llvm.lifetime.end.p0(i64 16, ptr nonnull %4) #20
  %14 = getelementptr inbounds nuw i8, ptr %1, i64 224
  %15 = load i64, ptr %14, align 8, !tbaa !57
  %16 = icmp sgt i64 %.0.i, %15
  br i1 %16, label %17, label %35

17:                                               ; preds = %Abc_Clock.exit
  %18 = getelementptr inbounds nuw i8, ptr %1, i64 212
  %19 = load i32, ptr %18, align 4, !tbaa !118
  %20 = add nsw i32 %19, 1
  store i32 %20, ptr %18, align 4, !tbaa !118
  %.not.i = icmp eq ptr %0, null
  br i1 %.not.i, label %24, label %21

21:                                               ; preds = %17
  %22 = load i32, ptr %0, align 4, !tbaa !33
  %23 = icmp slt i32 %20, %22
  br i1 %23, label %Extra_ProgressBarUpdate.exit, label %24

24:                                               ; preds = %21, %17
  call void @Extra_ProgressBarUpdate_int(ptr noundef %0, i32 noundef range(i32 -2147483647, -2147483648) %20, ptr noundef null) #20
  br label %Extra_ProgressBarUpdate.exit

Extra_ProgressBarUpdate.exit:                     ; preds = %21, %24
  call void @llvm.lifetime.start.p0(i64 16, ptr nonnull %3) #20
  %25 = call i32 @clock_gettime(i32 noundef 1, ptr noundef nonnull %3) #20
  %26 = icmp slt i32 %25, 0
  br i1 %26, label %Abc_Clock.exit11, label %27

27:                                               ; preds = %Extra_ProgressBarUpdate.exit
  %28 = load i64, ptr %3, align 8, !tbaa !28
  %29 = mul nsw i64 %28, 1000000
  %30 = getelementptr inbounds nuw i8, ptr %3, i64 8
  %31 = load i64, ptr %30, align 8, !tbaa !30
  %32 = sdiv i64 %31, 1000
  %33 = add i64 %29, 1000000
  %34 = add i64 %33, %32
  br label %Abc_Clock.exit11

Abc_Clock.exit11:                                 ; preds = %Extra_ProgressBarUpdate.exit, %27
  %.0.i10 = phi i64 [ %34, %27 ], [ 999999, %Extra_ProgressBarUpdate.exit ]
  call void @llvm.lifetime.end.p0(i64 16, ptr nonnull %3) #20
  store i64 %.0.i10, ptr %14, align 8, !tbaa !57
  br label %35

35:                                               ; preds = %Abc_Clock.exit11, %Abc_Clock.exit
  %36 = getelementptr inbounds nuw i8, ptr %1, i64 216
  %37 = load i64, ptr %36, align 8, !tbaa !31
  %.not = icmp ne i64 %37, 0
  %38 = icmp sgt i64 %.0.i, %37
  %or.cond = and i1 %.not, %38
  br i1 %or.cond, label %39, label %40

39:                                               ; preds = %35
  %puts = call i32 @puts(ptr nonnull dereferenceable(1) @str.2)
  br label %44

40:                                               ; preds = %35
  %41 = getelementptr inbounds nuw i8, ptr %1, i64 168
  %42 = load i32, ptr %41, align 8, !tbaa !87
  %43 = add nsw i32 %42, 1
  store i32 %43, ptr %41, align 8, !tbaa !87
  br label %44

44:                                               ; preds = %40, %39
  %.0 = phi i32 [ 1, %39 ], [ 0, %40 ]
  ret i32 %.0
}